target datalayout = "e-m:e-p270:32:32-p271:32:32-p272:64:64-i64:64-i128:128-f80:128-n8:16:32:64-S128"
target triple = "x86_64-pc-linux-gnu"

%struct._tvbparse_wanted_t = type { i32, ptr, %union.anon, i32, i32, i32, ptr, ptr, ptr }
%union.anon = type { %struct.anon.2 }
%struct.anon.2 = type { ptr, ptr, ptr }
%struct._tvbparse_t = type { ptr, ptr, i32, i32, ptr, ptr, i32 }
%struct._GPtrArray = type { ptr, i32 }
%struct._tvbparse_elem_t = type { i32, ptr, ptr, i32, i32, ptr, ptr, ptr, ptr, ptr }

; Function Attrs: null_pointer_is_valid sspstrong uwtable
define internal i32 @ignore_fcn(ptr noundef %0, i32 noundef %1) #0 {
  %3 = alloca i32, align 4
  %4 = alloca ptr, align 8
  %5 = alloca i32, align 4
  %6 = alloca i32, align 4
  %7 = alloca i32, align 4
  %8 = alloca ptr, align 8
  %9 = alloca i32, align 4
  store ptr %0, ptr %4, align 8
  store i32 %1, ptr %5, align 4
  call void @llvm.lifetime.start.p0(i64 4, ptr %6) #11
  store i32 0, ptr %6, align 4
  call void @llvm.lifetime.start.p0(i64 4, ptr %7) #11
  call void @llvm.lifetime.start.p0(i64 8, ptr %8) #11
  store ptr null, ptr %8, align 8
  %10 = load ptr, ptr %4, align 8
  %11 = getelementptr inbounds nuw %struct._tvbparse_t, ptr %10, i32 0, i32 5
  %12 = load ptr, ptr %11, align 8
  %13 = icmp ne ptr %12, null
  br i1 %13, label %15, label %14

14:                                               ; preds = %2
  store i32 0, ptr %3, align 4
  store i32 1, ptr %9, align 4
  br label %38

15:                                               ; preds = %2
  br label %16

16:                                               ; preds = %29, %15
  %17 = load ptr, ptr %4, align 8
  %18 = getelementptr inbounds nuw %struct._tvbparse_t, ptr %17, i32 0, i32 5
  %19 = load ptr, ptr %18, align 8
  %20 = getelementptr inbounds nuw %struct._tvbparse_wanted_t, ptr %19, i32 0, i32 1
  %21 = load ptr, ptr %20, align 8
  %22 = load ptr, ptr %4, align 8
  %23 = load i32, ptr %5, align 4
  %24 = load ptr, ptr %4, align 8
  %25 = getelementptr inbounds nuw %struct._tvbparse_t, ptr %24, i32 0, i32 5
  %26 = load ptr, ptr %25, align 8
  %27 = call i32 %21(ptr noundef %22, i32 noundef %23, ptr noundef %26, ptr noundef %8)
  store i32 %27, ptr %7, align 4
  %28 = icmp sgt i32 %27, 0
  br i1 %28, label %29, label %36

29:                                               ; preds = %16
  %30 = load i32, ptr %7, align 4
  %31 = load i32, ptr %6, align 4
  %32 = add i32 %31, %30
  store i32 %32, ptr %6, align 4
  %33 = load i32, ptr %7, align 4
  %34 = load i32, ptr %5, align 4
  %35 = add i32 %34, %33
  store i32 %35, ptr %5, align 4
  br label %16, !llvm.loop !22

36:                                               ; preds = %16
  %37 = load i32, ptr %6, align 4
  store i32 %37, ptr %3, align 4
  store i32 1, ptr %9, align 4
  br label %38

38:                                               ; preds = %36, %14
  call void @llvm.lifetime.end.p0(i64 8, ptr %8) #11
  call void @llvm.lifetime.end.p0(i64 4, ptr %7) #11
  call void @llvm.lifetime.end.p0(i64 4, ptr %6) #11
  %39 = load i32, ptr %3, align 4
  ret i32 %39
}

; Function Attrs: null_pointer_is_valid sspstrong uwtable
define internal ptr @new_tok(ptr noundef %0, i32 noundef %1, i32 noundef %2, i32 noundef %3, ptr noundef %4) #0 {
  %6 = alloca ptr, align 8
  %7 = alloca i32, align 4
  %8 = alloca i32, align 4
  %9 = alloca i32, align 4
  %10 = alloca ptr, align 8
  %11 = alloca ptr, align 8
  store ptr %0, ptr %6, align 8
  store i32 %1, ptr %7, align 4
  store i32 %2, ptr %8, align 4
  store i32 %3, ptr %9, align 4
  store ptr %4, ptr %10, align 8
  call void @llvm.lifetime.start.p0(i64 8, ptr %11) #11
  %12 = load ptr, ptr %6, align 8
  %13 = getelementptr inbounds nuw %struct._tvbparse_t, ptr %12, i32 0, i32 0
  %14 = load ptr, ptr %13, align 8
  %15 = call noalias ptr @wmem_alloc(ptr noundef %14, i64 noundef 72) #12
  store ptr %15, ptr %11, align 8
  %16 = load ptr, ptr %6, align 8
  %17 = load ptr, ptr %11, align 8
  %18 = getelementptr inbounds nuw %struct._tvbparse_elem_t, ptr %17, i32 0, i32 1
  store ptr %16, ptr %18, align 8
  %19 = load ptr, ptr %6, align 8
  %20 = getelementptr inbounds nuw %struct._tvbparse_t, ptr %19, i32 0, i32 1
  %21 = load ptr, ptr %20, align 8
  %22 = load ptr, ptr %11, align 8
  %23 = getelementptr inbounds nuw %struct._tvbparse_elem_t, ptr %22, i32 0, i32 2
  store ptr %21, ptr %23, align 8
  %24 = load i32, ptr %7, align 4
  %25 = load ptr, ptr %11, align 8
  %26 = getelementptr inbounds nuw %struct._tvbparse_elem_t, ptr %25, i32 0, i32 0
  store i32 %24, ptr %26, align 8
  %27 = load i32, ptr %8, align 4
  %28 = load ptr, ptr %11, align 8
  %29 = getelementptr inbounds nuw %struct._tvbparse_elem_t, ptr %28, i32 0, i32 3
  store i32 %27, ptr %29, align 8
  %30 = load i32, ptr %9, align 4
  %31 = load ptr, ptr %11, align 8
  %32 = getelementptr inbounds nuw %struct._tvbparse_elem_t, ptr %31, i32 0, i32 4
  store i32 %30, ptr %32, align 4
  %33 = load ptr, ptr %11, align 8
  %34 = getelementptr inbounds nuw %struct._tvbparse_elem_t, ptr %33, i32 0, i32 5
  store ptr null, ptr %34, align 8
  %35 = load ptr, ptr %11, align 8
  %36 = getelementptr inbounds nuw %struct._tvbparse_elem_t, ptr %35, i32 0, i32 6
  store ptr null, ptr %36, align 8
  %37 = load ptr, ptr %11, align 8
  %38 = getelementptr inbounds nuw %struct._tvbparse_elem_t, ptr %37, i32 0, i32 7
  store ptr null, ptr %38, align 8
  %39 = load ptr, ptr %10, align 8
  %40 = load ptr, ptr %11, align 8
  %41 = getelementptr inbounds nuw %struct._tvbparse_elem_t, ptr %40, i32 0, i32 9
  store ptr %39, ptr %41, align 8
  %42 = load ptr, ptr %11, align 8
  %43 = load ptr, ptr %11, align 8
  %44 = getelementptr inbounds nuw %struct._tvbparse_elem_t, ptr %43, i32 0, i32 8
  store ptr %42, ptr %44, align 8
  %45 = load ptr, ptr %11, align 8
  call void @llvm.lifetime.end.p0(i64 8, ptr %11) #11
  ret ptr %45
}

; Function Attrs: null_pointer_is_valid sspstrong uwtable
define internal i32 @cond_seq(ptr noundef %0, i32 noundef %1, ptr noundef %2, ptr noundef %3) #0 {
  %5 = alloca i32, align 4
  %6 = alloca ptr, align 8
  %7 = alloca i32, align 4
  %8 = alloca ptr, align 8
  %9 = alloca ptr, align 8
  %10 = alloca i32, align 4
  %11 = alloca i32, align 4
  %12 = alloca i32, align 4
  %13 = alloca ptr, align 8
  %14 = alloca i32, align 4
  %15 = alloca ptr, align 8
  %16 = alloca ptr, align 8
  store ptr %0, ptr %6, align 8
  store i32 %1, ptr %7, align 4
  store ptr %2, ptr %8, align 8
  store ptr %3, ptr %9, align 8
  call void @llvm.lifetime.start.p0(i64 4, ptr %10) #11
  call void @llvm.lifetime.start.p0(i64 4, ptr %11) #11
  store i32 0, ptr %11, align 4
  call void @llvm.lifetime.start.p0(i64 4, ptr %12) #11
  %17 = load i32, ptr %7, align 4
  store i32 %17, ptr %12, align 4
  call void @llvm.lifetime.start.p0(i64 8, ptr %13) #11
  store ptr null, ptr %13, align 8
  %18 = load i32, ptr %7, align 4
  %19 = load ptr, ptr %6, align 8
  %20 = getelementptr inbounds nuw %struct._tvbparse_t, ptr %19, i32 0, i32 3
  %21 = load i32, ptr %20, align 4
  %22 = icmp sgt i32 %18, %21
  br i1 %22, label %23, label %24

23:                                               ; preds = %4
  store i32 -1, ptr %5, align 4
  store i32 1, ptr %14, align 4
  br label %159

24:                                               ; preds = %4
  %25 = load ptr, ptr %6, align 8
  %26 = getelementptr inbounds nuw %struct._tvbparse_t, ptr %25, i32 0, i32 6
  %27 = load i32, ptr %26, align 8
  %28 = add i32 %27, 1
  store i32 %28, ptr %26, align 8
  %29 = icmp sgt i32 %28, 100
  br i1 %29, label %30, label %31

30:                                               ; preds = %24
  store i32 -1, ptr %5, align 4
  store i32 1, ptr %14, align 4
  br label %159

31:                                               ; preds = %24
  store i32 0, ptr %10, align 4
  br label %32

32:                                               ; preds = %146, %31
  %33 = load i32, ptr %10, align 4
  %34 = load ptr, ptr %8, align 8
  %35 = getelementptr inbounds nuw %struct._tvbparse_wanted_t, ptr %34, i32 0, i32 2
  %36 = load ptr, ptr %35, align 8
  %37 = getelementptr inbounds nuw %struct._GPtrArray, ptr %36, i32 0, i32 1
  %38 = load i32, ptr %37, align 8
  %39 = icmp ult i32 %33, %38
  br i1 %39, label %40, label %149

40:                                               ; preds = %32
  call void @llvm.lifetime.start.p0(i64 8, ptr %15) #11
  %41 = load ptr, ptr %8, align 8
  %42 = getelementptr inbounds nuw %struct._tvbparse_wanted_t, ptr %41, i32 0, i32 2
  %43 = load ptr, ptr %42, align 8
  %44 = getelementptr inbounds nuw %struct._GPtrArray, ptr %43, i32 0, i32 0
  %45 = load ptr, ptr %44, align 8
  %46 = load i32, ptr %10, align 4
  %47 = zext i32 %46 to i64
  %48 = getelementptr ptr, ptr %45, i64 %47
  %49 = load ptr, ptr %48, align 8
  store ptr %49, ptr %15, align 8
  call void @llvm.lifetime.start.p0(i64 8, ptr %16) #11
  store ptr null, ptr %16, align 8
  %50 = load i32, ptr %7, align 4
  %51 = load ptr, ptr %15, align 8
  %52 = getelementptr inbounds nuw %struct._tvbparse_wanted_t, ptr %51, i32 0, i32 3
  %53 = load i32, ptr %52, align 8
  %54 = add i32 %50, %53
  %55 = load ptr, ptr %6, align 8
  %56 = getelementptr inbounds nuw %struct._tvbparse_t, ptr %55, i32 0, i32 3
  %57 = load i32, ptr %56, align 4
  %58 = icmp sgt i32 %54, %57
  br i1 %58, label %59, label %64

59:                                               ; preds = %40
  %60 = load ptr, ptr %6, align 8
  %61 = getelementptr inbounds nuw %struct._tvbparse_t, ptr %60, i32 0, i32 6
  %62 = load i32, ptr %61, align 8
  %63 = add i32 %62, -1
  store i32 %63, ptr %61, align 8
  store i32 -1, ptr %5, align 4
  store i32 1, ptr %14, align 4
  br label %143

64:                                               ; preds = %40
  %65 = load ptr, ptr %15, align 8
  %66 = getelementptr inbounds nuw %struct._tvbparse_wanted_t, ptr %65, i32 0, i32 1
  %67 = load ptr, ptr %66, align 8
  %68 = load ptr, ptr %6, align 8
  %69 = load i32, ptr %7, align 4
  %70 = load ptr, ptr %15, align 8
  %71 = call i32 %67(ptr noundef %68, i32 noundef %69, ptr noundef %70, ptr noundef %16)
  store i32 %71, ptr %11, align 4
  %72 = load i32, ptr %11, align 4
  %73 = icmp sge i32 %72, 0
  br i1 %73, label %74, label %129

74:                                               ; preds = %64
  %75 = load ptr, ptr %13, align 8
  %76 = icmp ne ptr %75, null
  br i1 %76, label %77, label %109

77:                                               ; preds = %74
  %78 = load ptr, ptr %16, align 8
  %79 = getelementptr inbounds nuw %struct._tvbparse_elem_t, ptr %78, i32 0, i32 4
  %80 = load i32, ptr %79, align 4
  %81 = icmp ne i32 %80, 0
  br i1 %81, label %82, label %96

82:                                               ; preds = %77
  %83 = load ptr, ptr %16, align 8
  %84 = getelementptr inbounds nuw %struct._tvbparse_elem_t, ptr %83, i32 0, i32 3
  %85 = load i32, ptr %84, align 8
  %86 = load ptr, ptr %13, align 8
  %87 = getelementptr inbounds nuw %struct._tvbparse_elem_t, ptr %86, i32 0, i32 3
  %88 = load i32, ptr %87, align 8
  %89 = sub i32 %85, %88
  %90 = load ptr, ptr %16, align 8
  %91 = getelementptr inbounds nuw %struct._tvbparse_elem_t, ptr %90, i32 0, i32 4
  %92 = load i32, ptr %91, align 4
  %93 = add i32 %89, %92
  %94 = load ptr, ptr %13, align 8
  %95 = getelementptr inbounds nuw %struct._tvbparse_elem_t, ptr %94, i32 0, i32 4
  store i32 %93, ptr %95, align 4
  br label %96

96:                                               ; preds = %82, %77
  %97 = load ptr, ptr %16, align 8
  %98 = load ptr, ptr %13, align 8
  %99 = getelementptr inbounds nuw %struct._tvbparse_elem_t, ptr %98, i32 0, i32 6
  %100 = load ptr, ptr %99, align 8
  %101 = getelementptr inbounds nuw %struct._tvbparse_elem_t, ptr %100, i32 0, i32 8
  %102 = load ptr, ptr %101, align 8
  %103 = getelementptr inbounds nuw %struct._tvbparse_elem_t, ptr %102, i32 0, i32 7
  store ptr %97, ptr %103, align 8
  %104 = load ptr, ptr %16, align 8
  %105 = load ptr, ptr %13, align 8
  %106 = getelementptr inbounds nuw %struct._tvbparse_elem_t, ptr %105, i32 0, i32 6
  %107 = load ptr, ptr %106, align 8
  %108 = getelementptr inbounds nuw %struct._tvbparse_elem_t, ptr %107, i32 0, i32 8
  store ptr %104, ptr %108, align 8
  br label %128

109:                                              ; preds = %74
  %110 = load ptr, ptr %6, align 8
  %111 = load ptr, ptr %8, align 8
  %112 = getelementptr inbounds nuw %struct._tvbparse_wanted_t, ptr %111, i32 0, i32 0
  %113 = load i32, ptr %112, align 8
  %114 = load ptr, ptr %16, align 8
  %115 = getelementptr inbounds nuw %struct._tvbparse_elem_t, ptr %114, i32 0, i32 3
  %116 = load i32, ptr %115, align 8
  %117 = load ptr, ptr %16, align 8
  %118 = getelementptr inbounds nuw %struct._tvbparse_elem_t, ptr %117, i32 0, i32 4
  %119 = load i32, ptr %118, align 4
  %120 = load ptr, ptr %8, align 8
  %121 = call ptr @new_tok(ptr noundef %110, i32 noundef %113, i32 noundef %116, i32 noundef %119, ptr noundef %120)
  store ptr %121, ptr %13, align 8
  %122 = load ptr, ptr %16, align 8
  %123 = load ptr, ptr %13, align 8
  %124 = getelementptr inbounds nuw %struct._tvbparse_elem_t, ptr %123, i32 0, i32 6
  store ptr %122, ptr %124, align 8
  %125 = load ptr, ptr %16, align 8
  %126 = load ptr, ptr %16, align 8
  %127 = getelementptr inbounds nuw %struct._tvbparse_elem_t, ptr %126, i32 0, i32 8
  store ptr %125, ptr %127, align 8
  br label %128

128:                                              ; preds = %109, %96
  br label %134

129:                                              ; preds = %64
  %130 = load ptr, ptr %6, align 8
  %131 = getelementptr inbounds nuw %struct._tvbparse_t, ptr %130, i32 0, i32 6
  %132 = load i32, ptr %131, align 8
  %133 = add i32 %132, -1
  store i32 %133, ptr %131, align 8
  store i32 -1, ptr %5, align 4
  store i32 1, ptr %14, align 4
  br label %143

134:                                              ; preds = %128
  %135 = load i32, ptr %11, align 4
  %136 = load i32, ptr %7, align 4
  %137 = add i32 %136, %135
  store i32 %137, ptr %7, align 4
  %138 = load ptr, ptr %6, align 8
  %139 = load i32, ptr %7, align 4
  %140 = call i32 @ignore_fcn(ptr noundef %138, i32 noundef %139)
  %141 = load i32, ptr %7, align 4
  %142 = add i32 %141, %140
  store i32 %142, ptr %7, align 4
  store i32 0, ptr %14, align 4
  br label %143

143:                                              ; preds = %134, %129, %59
  call void @llvm.lifetime.end.p0(i64 8, ptr %16) #11
  call void @llvm.lifetime.end.p0(i64 8, ptr %15) #11
  %144 = load i32, ptr %14, align 4
  switch i32 %144, label %159 [
    i32 0, label %145
  ]

145:                                              ; preds = %143
  br label %146

146:                                              ; preds = %145
  %147 = load i32, ptr %10, align 4
  %148 = add i32 %147, 1
  store i32 %148, ptr %10, align 4
  br label %32, !llvm.loop !19

149:                                              ; preds = %32
  %150 = load ptr, ptr %6, align 8
  %151 = getelementptr inbounds nuw %struct._tvbparse_t, ptr %150, i32 0, i32 6
  %152 = load i32, ptr %151, align 8
  %153 = add i32 %152, -1
  store i32 %153, ptr %151, align 8
  %154 = load ptr, ptr %13, align 8
  %155 = load ptr, ptr %9, align 8
  store ptr %154, ptr %155, align 8
  %156 = load i32, ptr %7, align 4
  %157 = load i32, ptr %12, align 4
  %158 = sub i32 %156, %157
  store i32 %158, ptr %5, align 4
  store i32 1, ptr %14, align 4
  br label %159

159:                                              ; preds = %149, %143, %30, %23
  call void @llvm.lifetime.end.p0(i64 8, ptr %13) #11
  call void @llvm.lifetime.end.p0(i64 4, ptr %12) #11
  call void @llvm.lifetime.end.p0(i64 4, ptr %11) #11
  call void @llvm.lifetime.end.p0(i64 4, ptr %10) #11
  %160 = load i32, ptr %5, align 4
  ret i32 %160
}